target datalayout = "e-m:e-p270:32:32-p271:32:32-p272:64:64-i64:64-i128:128-f80:128-n8:16:32:64-S128"
target triple = "x86_64-pc-linux-gnu"

%"class.llvm::StringRef" = type { ptr, i64 }

@_ZL25TimeTraceProfilerInstance = internal thread_local global ptr null, align 8

; Function Attrs: mustprogress nounwind uwtable
define dso_local void @_ZN4llvm27timeTraceProfilerInitializeEjNS_9StringRefEb(i32 noundef %0, ptr %1, i64 %2, i1 noundef zeroext %3) #0 {
  %5 = alloca %"class.llvm::StringRef", align 8
  %6 = alloca i32, align 4
  %7 = alloca i8, align 1
  %8 = alloca %"class.llvm::StringRef", align 8
  %9 = alloca %"class.llvm::StringRef", align 8
  %10 = getelementptr inbounds nuw { ptr, i64 }, ptr %5, i32 0, i32 0
  store ptr %1, ptr %10, align 8
  %11 = getelementptr inbounds nuw { ptr, i64 }, ptr %5, i32 0, i32 1
  store i64 %2, ptr %11, align 8
  store i32 %0, ptr %6, align 4
  %12 = zext i1 %3 to i8
  store i8 %12, ptr %7, align 1
  %13 = call noalias noundef nonnull ptr @_Znwm(i64 noundef 16664) #13
  %14 = load i32, ptr %6, align 4
  call void @llvm.memcpy.p0.p0.i64(ptr align 8 %9, ptr align 8 %5, i64 16, i1 false)
  %15 = getelementptr inbounds nuw { ptr, i64 }, ptr %9, i32 0, i32 0
  %16 = load ptr, ptr %15, align 8
  %17 = getelementptr inbounds nuw { ptr, i64 }, ptr %9, i32 0, i32 1
  %18 = load i64, ptr %17, align 8
  %19 = call { ptr, i64 } @_ZN4llvm3sys4path8filenameENS_9StringRefENS1_5StyleE(ptr %16, i64 %18, i32 noundef 0)
  %20 = getelementptr inbounds nuw { ptr, i64 }, ptr %8, i32 0, i32 0
  %21 = extractvalue { ptr, i64 } %19, 0
  store ptr %21, ptr %20, align 8
  %22 = getelementptr inbounds nuw { ptr, i64 }, ptr %8, i32 0, i32 1
  %23 = extractvalue { ptr, i64 } %19, 1
  store i64 %23, ptr %22, align 8
  %24 = load i8, ptr %7, align 1
  %25 = trunc i8 %24 to i1
  %26 = getelementptr inbounds nuw { ptr, i64 }, ptr %8, i32 0, i32 0
  %27 = load ptr, ptr %26, align 8
  %28 = getelementptr inbounds nuw { ptr, i64 }, ptr %8, i32 0, i32 1
  %29 = load i64, ptr %28, align 8
  call void @_ZN4llvm17TimeTraceProfilerC2EjNS_9StringRefEb(ptr noundef nonnull align 8 dereferenceable(16661) %13, i32 noundef %14, ptr %27, i64 %29, i1 noundef zeroext %25)
  %30 = call align 8 ptr @llvm.threadlocal.address.p0(ptr align 8 @_ZL25TimeTraceProfilerInstance)
  store ptr %13, ptr %30, align 8
  ret void
}