; Function Attrs: mustprogress nounwind uwtable
define dso_local void @_ZN4llvm27timeTraceProfilerInitializeEjNS_9StringRefEb(i32 noundef %0, ptr %1, i64 %2, i1 noundef zeroext %3) local_unnamed_addr #3 {
  %5 = tail call noalias noundef nonnull dereferenceable(16664) ptr @_Znwm(i64 noundef 16664) #19
  %6 = tail call { ptr, i64 } @_ZN4llvm3sys4path8filenameENS_9StringRefENS1_5StyleE(ptr %1, i64 %2, i32 noundef 0) #20
  %7 = extractvalue { ptr, i64 } %6, 0
  %8 = extractvalue { ptr, i64 } %6, 1
  tail call void @_ZN4llvm17TimeTraceProfilerC2EjNS_9StringRefEb(ptr noundef nonnull align 8 dereferenceable(16661) %5, i32 noundef %0, ptr %7, i64 %8, i1 noundef zeroext %3)
  %9 = tail call align 8 ptr @llvm.threadlocal.address.p0(ptr align 8 @_ZL25TimeTraceProfilerInstance)
  store ptr %5, ptr %9, align 8
  ret void
}